ccopy_reg
_reconstructor
p0
(cSTDenseNetFusion.models.MinMaxNorm
MinMaxNorm01
p1
c__builtin__
object
p2
Ntp3
Rp4
(dp5
S'max'
p6
cnumpy.core.multiarray
scalar
p7
(cnumpy
dtype
p8
(S'f8'
p9
I0
I1
tp10
Rp11
(I3
S'<'
p12
NNNI-1
I-1
I0
tp13
bS'\x7f\x1d\xaa#3B\xa4@'
p14
tp15
Rp16
sS'min'
p17
g7
(g11
S'\x00\x00\x00\x00\x00\x00\x00\x00'
p18
tp19
Rp20
sb.